; Function Attrs: nounwind uwtable
define noalias noundef ptr @Abc_FrameGiaOutputMiniLutAttr(ptr noundef %0, ptr noundef readonly captures(none) %1) local_unnamed_addr #2 {
  %3 = icmp eq ptr %0, null
  br i1 %3, label %4, label %5

4:                                                ; preds = %2
  %puts = tail call i32 @puts(ptr nonnull dereferenceable(1) @str.20)
  br label %5

5:                                                ; preds = %4, %2
  %6 = tail call ptr @Abc_FrameReadGia(ptr noundef %0) #25
  %7 = icmp eq ptr %6, null
  br i1 %7, label %.split6, label %.split

.split:                                           ; preds = %5
  %8 = getelementptr i8, ptr %1, i64 4
  %.val13.i = load i32, ptr %8, align 4, !tbaa !73
  %9 = sext i32 %.val13.i to i64
  %10 = tail call noalias ptr @calloc(i64 noundef %9, i64 noundef 1) #28
  %11 = getelementptr i8, ptr %6, i64 24
  %.val14.i = load i32, ptr %11, align 8, !tbaa !48
  %12 = icmp sgt i32 %.val14.i, 1
  br i1 %12, label %.lr.ph.i, label %Gia_ManToMiniLutAttr.exit

.lr.ph.i:                                         ; preds = %.split
  %13 = getelementptr i8, ptr %6, i64 264
  %.val15.i = load ptr, ptr %13, align 8, !tbaa !90
  %14 = getelementptr i8, ptr %.val15.i, i64 8
  %.val15.val.i = load ptr, ptr %14, align 8, !tbaa !11
  %15 = getelementptr i8, ptr %6, i64 32
  %wide.trip.count.i = zext nneg i32 %.val14.i to i64
  br label %16

16:                                               ; preds = %32, %.lr.ph.i
  %indvars.iv.i = phi i64 [ 1, %.lr.ph.i ], [ %indvars.iv.next.i, %32 ]
  %17 = getelementptr inbounds nuw i32, ptr %.val15.val.i, i64 %indvars.iv.i
  %18 = load i32, ptr %17, align 4, !tbaa !10
  %.not17.i = icmp eq i32 %18, 0
  br i1 %.not17.i, label %32, label %19

19:                                               ; preds = %16
  %20 = sext i32 %18 to i64
  %21 = getelementptr inbounds i32, ptr %.val15.val.i, i64 %20
  %22 = getelementptr inbounds nuw i8, ptr %21, i64 4
  %23 = load i32, ptr %21, align 4, !tbaa !10
  %24 = sext i32 %23 to i64
  %25 = getelementptr inbounds i32, ptr %22, i64 %24
  %26 = load i32, ptr %25, align 4, !tbaa !10
  %.not12.i = icmp sgt i32 %26, -1
  br i1 %.not12.i, label %32, label %27

27:                                               ; preds = %19
  %.val.i = load ptr, ptr %15, align 8, !tbaa !41
  %28 = getelementptr inbounds nuw %struct.Gia_Obj_t_, ptr %.val.i, i64 %indvars.iv.i, i32 1
  %29 = load i32, ptr %28, align 4, !tbaa !45
  %30 = zext i32 %29 to i64
  %31 = getelementptr inbounds nuw i8, ptr %10, i64 %30
  store i8 1, ptr %31, align 1, !tbaa !66
  br label %32

32:                                               ; preds = %27, %19, %16
  %indvars.iv.next.i = add nuw nsw i64 %indvars.iv.i, 1
  %exitcond.not.i = icmp eq i64 %indvars.iv.next.i, %wide.trip.count.i
  br i1 %exitcond.not.i, label %Gia_ManToMiniLutAttr.exit, label %16, !llvm.loop !110

.split6:                                          ; preds = %5
  %puts7 = tail call i32 @puts(ptr nonnull dereferenceable(1) @str.21)
  %33 = getelementptr i8, ptr %1, i64 4
  %.val13.i8 = load i32, ptr %33, align 4, !tbaa !73
  %34 = sext i32 %.val13.i8 to i64
  %35 = tail call noalias ptr @calloc(i64 noundef %34, i64 noundef 1) #28
  %.val14.i9 = load i32, ptr inttoptr (i64 24 to ptr), align 8, !tbaa !48
  %36 = icmp sgt i32 %.val14.i9, 1
  br i1 %36, label %.lr.ph.i10, label %Gia_ManToMiniLutAttr.exit

.lr.ph.i10:                                       ; preds = %.split6
  %.val15.i11 = load ptr, ptr inttoptr (i64 264 to ptr), align 8, !tbaa !90
  %37 = getelementptr i8, ptr %.val15.i11, i64 8
  %.val15.val.i12 = load ptr, ptr %37, align 8, !tbaa !11
  %wide.trip.count.i13 = zext nneg i32 %.val14.i9 to i64
  br label %38

38:                                               ; preds = %54, %.lr.ph.i10
  %indvars.iv.i14 = phi i64 [ 1, %.lr.ph.i10 ], [ %indvars.iv.next.i18, %54 ]
  %39 = getelementptr inbounds nuw i32, ptr %.val15.val.i12, i64 %indvars.iv.i14
  %40 = load i32, ptr %39, align 4, !tbaa !10
  %.not17.i15 = icmp eq i32 %40, 0
  br i1 %.not17.i15, label %54, label %41

41:                                               ; preds = %38
  %42 = sext i32 %40 to i64
  %43 = getelementptr inbounds i32, ptr %.val15.val.i12, i64 %42
  %44 = getelementptr inbounds nuw i8, ptr %43, i64 4
  %45 = load i32, ptr %43, align 4, !tbaa !10
  %46 = sext i32 %45 to i64
  %47 = getelementptr inbounds i32, ptr %44, i64 %46
  %48 = load i32, ptr %47, align 4, !tbaa !10
  %.not12.i16 = icmp sgt i32 %48, -1
  br i1 %.not12.i16, label %54, label %49

49:                                               ; preds = %41
  %.val.i17 = load ptr, ptr inttoptr (i64 32 to ptr), align 32, !tbaa !41
  %50 = getelementptr inbounds nuw %struct.Gia_Obj_t_, ptr %.val.i17, i64 %indvars.iv.i14, i32 1
  %51 = load i32, ptr %50, align 4, !tbaa !45
  %52 = zext i32 %51 to i64
  %53 = getelementptr inbounds nuw i8, ptr %35, i64 %52
  store i8 1, ptr %53, align 1, !tbaa !66
  br label %54

54:                                               ; preds = %49, %41, %38
  %indvars.iv.next.i18 = add nuw nsw i64 %indvars.iv.i14, 1
  %exitcond.not.i19 = icmp eq i64 %indvars.iv.next.i18, %wide.trip.count.i13
  br i1 %exitcond.not.i19, label %Gia_ManToMiniLutAttr.exit, label %38, !llvm.loop !110

Gia_ManToMiniLutAttr.exit:                        ; preds = %32, %54, %.split6, %.split
  %phi.call = phi ptr [ %10, %.split ], [ %35, %.split6 ], [ %35, %54 ], [ %10, %32 ]
  ret ptr %phi.call
}